; Function Attrs: mustprogress uwtable
define internal fastcc void @_ZN12_GLOBAL__N_112DftTagWorker12forward_tagsEN5Yosys5RTLIL7SigSpecES3_(ptr noundef nonnull align 8 dereferenceable(1272) %0, ptr noundef %1, ptr noundef %2) unnamed_addr #4 align 2 {
  %4 = load i32, ptr %1, align 8
  %5 = icmp sgt i32 %4, 0
  br i1 %5, label %.lr.ph, label %._crit_edge

.lr.ph:                                           ; preds = %3
  %6 = getelementptr inbounds i8, ptr %1, i64 16
  %7 = getelementptr inbounds i8, ptr %1, i64 24
  %8 = getelementptr inbounds i8, ptr %1, i64 40
  %9 = getelementptr inbounds i8, ptr %1, i64 48
  %10 = getelementptr inbounds i8, ptr %2, i64 16
  %11 = getelementptr inbounds i8, ptr %2, i64 24
  %12 = getelementptr inbounds i8, ptr %2, i64 40
  %13 = getelementptr inbounds i8, ptr %2, i64 48
  br label %14

14:                                               ; preds = %.lr.ph, %_ZN5Yosys5RTLIL7SigSpecixEi.exit10
  %indvars.iv = phi i64 [ 0, %.lr.ph ], [ %indvars.iv.next, %_ZN5Yosys5RTLIL7SigSpecixEi.exit10 ]
  %15 = load ptr, ptr %6, align 8
  %16 = load ptr, ptr %7, align 8
  %17 = icmp eq ptr %15, %16
  br i1 %17, label %_ZNK5Yosys5RTLIL7SigSpec13inline_unpackEv.exit.i, label %18

18:                                               ; preds = %14
  tail call void @_ZNK5Yosys5RTLIL7SigSpec6unpackEv(ptr noundef nonnull align 8 dereferenceable(64) %1)
  br label %_ZNK5Yosys5RTLIL7SigSpec13inline_unpackEv.exit.i

_ZNK5Yosys5RTLIL7SigSpec13inline_unpackEv.exit.i: ; preds = %18, %14
  %19 = load ptr, ptr %9, align 8
  %20 = load ptr, ptr %8, align 8
  %21 = ptrtoint ptr %19 to i64
  %22 = ptrtoint ptr %20 to i64
  %23 = sub i64 %21, %22
  %24 = ashr exact i64 %23, 4
  %.not.i.i.i = icmp ugt i64 %24, %indvars.iv
  br i1 %.not.i.i.i, label %_ZN5Yosys5RTLIL7SigSpecixEi.exit, label %25

25:                                               ; preds = %_ZNK5Yosys5RTLIL7SigSpec13inline_unpackEv.exit.i
  tail call void (ptr, ...) @_ZSt24__throw_out_of_range_fmtPKcz(ptr noundef nonnull @.str.25, i64 noundef %indvars.iv, i64 noundef %24) #23
  unreachable

_ZN5Yosys5RTLIL7SigSpecixEi.exit:                 ; preds = %_ZNK5Yosys5RTLIL7SigSpec13inline_unpackEv.exit.i
  %26 = getelementptr inbounds %"struct.Yosys::RTLIL::SigBit", ptr %20, i64 %indvars.iv
  %.sroa.02.0.copyload = load ptr, ptr %26, align 8
  %.sroa.23.0..sroa_idx = getelementptr inbounds i8, ptr %26, i64 8
  %.sroa.23.0.copyload = load i32, ptr %.sroa.23.0..sroa_idx, align 8
  %27 = load ptr, ptr %10, align 8
  %28 = load ptr, ptr %11, align 8
  %29 = icmp eq ptr %27, %28
  br i1 %29, label %_ZNK5Yosys5RTLIL7SigSpec13inline_unpackEv.exit.i8, label %30

30:                                               ; preds = %_ZN5Yosys5RTLIL7SigSpecixEi.exit
  tail call void @_ZNK5Yosys5RTLIL7SigSpec6unpackEv(ptr noundef nonnull align 8 dereferenceable(64) %2)
  br label %_ZNK5Yosys5RTLIL7SigSpec13inline_unpackEv.exit.i8

_ZNK5Yosys5RTLIL7SigSpec13inline_unpackEv.exit.i8: ; preds = %30, %_ZN5Yosys5RTLIL7SigSpecixEi.exit
  %31 = load ptr, ptr %13, align 8
  %32 = load ptr, ptr %12, align 8
  %33 = ptrtoint ptr %31 to i64
  %34 = ptrtoint ptr %32 to i64
  %35 = sub i64 %33, %34
  %36 = ashr exact i64 %35, 4
  %.not.i.i.i9 = icmp ugt i64 %36, %indvars.iv
  br i1 %.not.i.i.i9, label %_ZN5Yosys5RTLIL7SigSpecixEi.exit10, label %37

37:                                               ; preds = %_ZNK5Yosys5RTLIL7SigSpec13inline_unpackEv.exit.i8
  tail call void (ptr, ...) @_ZSt24__throw_out_of_range_fmtPKcz(ptr noundef nonnull @.str.25, i64 noundef %indvars.iv, i64 noundef %36) #23
  unreachable

_ZN5Yosys5RTLIL7SigSpecixEi.exit10:               ; preds = %_ZNK5Yosys5RTLIL7SigSpec13inline_unpackEv.exit.i8
  %38 = getelementptr inbounds %"struct.Yosys::RTLIL::SigBit", ptr %32, i64 %indvars.iv
  %.sroa.0.0.copyload = load ptr, ptr %38, align 8
  %.sroa.2.0..sroa_idx = getelementptr inbounds i8, ptr %38, i64 8
  %.sroa.2.0.copyload = load i32, ptr %.sroa.2.0..sroa_idx, align 8
  %39 = tail call fastcc i32 @_ZN12_GLOBAL__N_112DftTagWorker4tagsEN5Yosys5RTLIL6SigBitE(ptr noundef nonnull align 8 dereferenceable(1272) %0, ptr %.sroa.0.0.copyload, i32 %.sroa.2.0.copyload)
  tail call fastcc void @_ZN12_GLOBAL__N_112DftTagWorker8add_tagsEN5Yosys5RTLIL6SigBitENS0_7tag_setE(ptr noundef nonnull align 8 dereferenceable(1272) %0, ptr %.sroa.02.0.copyload, i32 %.sroa.23.0.copyload, i32 %39)
  %indvars.iv.next = add nuw nsw i64 %indvars.iv, 1
  %40 = load i32, ptr %1, align 8
  %41 = sext i32 %40 to i64
  %42 = icmp slt i64 %indvars.iv.next, %41
  br i1 %42, label %14, label %._crit_edge, !llvm.loop !702

._crit_edge:                                      ; preds = %_ZN5Yosys5RTLIL7SigSpecixEi.exit10, %3
  ret void
}